(dp0
I20170107
(lp1
L155580880L
aL136548772L
aL167583370L
aL140877642L
aL168098446L
aL152225359L
aL163301552L
aL159720548L
aL129613335L
aL135466148L
aL167114442L
aL167794559L
asI20170108
(lp2
L170211746L
aL168999716L
asI20170109
(lp3
L170602305L
aL164656418L
aL127938116L
aL168057862L
aL156031303L
aL167860520L
aL135725996L
aL160052786L
aL170585246L
asI20170110
(lp4
L170588000L
aL125472322L
aL164106595L
aL170030183L
aL169808874L
aL168233228L
aL168625583L
aL166443060L
aL147529399L
aL30544089L
aL168061114L
aL150134939L
aL146023229L
as.